
Discarded input sections

 .group         0x00000000        0x8 build/main.o
 .note.GNU-stack
                0x00000000        0x0 build/main.o
 .group         0x00000000        0x8 build/init.o
 .text.__x86.get_pc_thunk.bx
                0x00000000        0x4 build/init.o
 .note.GNU-stack
                0x00000000        0x0 build/init.o
 .group         0x00000000        0x8 build/interrupt.o
 .group         0x00000000        0x8 build/interrupt.o
 .text.__x86.get_pc_thunk.bx
                0x00000000        0x4 build/interrupt.o
 .note.GNU-stack
                0x00000000        0x0 build/interrupt.o
 .group         0x00000000        0x8 build/timer.o
 .group         0x00000000        0x8 build/timer.o
 .text.__x86.get_pc_thunk.ax
                0x00000000        0x4 build/timer.o
 .text.__x86.get_pc_thunk.bx
                0x00000000        0x4 build/timer.o
 .note.GNU-stack
                0x00000000        0x0 build/timer.o
 .group         0x00000000        0x8 build/debug.o
 .text.__x86.get_pc_thunk.bx
                0x00000000        0x4 build/debug.o
 .note.GNU-stack
                0x00000000        0x0 build/debug.o
 .group         0x00000000        0x8 build/string.o
 .text.__x86.get_pc_thunk.ax
                0x00000000        0x4 build/string.o
 .note.GNU-stack
                0x00000000        0x0 build/string.o
 .group         0x00000000        0x8 build/memory.o
 .group         0x00000000        0x8 build/memory.o
 .text.__x86.get_pc_thunk.ax
                0x00000000        0x4 build/memory.o
 .text.__x86.get_pc_thunk.bx
                0x00000000        0x4 build/memory.o
 .note.GNU-stack
                0x00000000        0x0 build/memory.o
 .group         0x00000000        0x8 build/bitmap.o
 .text.__x86.get_pc_thunk.ax
                0x00000000        0x4 build/bitmap.o
 .note.GNU-stack
                0x00000000        0x0 build/bitmap.o
 .group         0x00000000        0x8 build/thread.o
 .group         0x00000000        0x8 build/thread.o
 .group         0x00000000        0x8 build/thread.o
 .text.__x86.get_pc_thunk.ax
                0x00000000        0x4 build/thread.o
 .text.__x86.get_pc_thunk.bx
                0x00000000        0x4 build/thread.o
 .note.GNU-stack
                0x00000000        0x0 build/thread.o
 .group         0x00000000        0x8 build/list.o
 .group         0x00000000        0x8 build/list.o
 .text.__x86.get_pc_thunk.ax
                0x00000000        0x4 build/list.o
 .text.__x86.get_pc_thunk.bx
                0x00000000        0x4 build/list.o
 .note.GNU-stack
                0x00000000        0x0 build/list.o
 .group         0x00000000        0x8 build/sync.o
 .group         0x00000000        0x8 build/sync.o
 .text.__x86.get_pc_thunk.ax
                0x00000000        0x4 build/sync.o
 .text.__x86.get_pc_thunk.bx
                0x00000000        0x4 build/sync.o
 .note.GNU-stack
                0x00000000        0x0 build/sync.o
 .group         0x00000000        0x8 build/console.o
 .group         0x00000000        0x8 build/console.o
 .text.__x86.get_pc_thunk.ax
                0x00000000        0x4 build/console.o
 .text.__x86.get_pc_thunk.bx
                0x00000000        0x4 build/console.o
 .note.GNU-stack
                0x00000000        0x0 build/console.o

Memory Configuration

Name             Origin             Length             Attributes
*default*        0x00000000         0xffffffff

Linker script and memory map

Address of section .text set to 0xc0001500
LOAD build/main.o
LOAD build/init.o
LOAD build/interrupt.o
LOAD build/timer.o
LOAD build/kernel.o
LOAD build/print.o
LOAD build/switch.o
LOAD build/debug.o
LOAD build/string.o
LOAD build/memory.o
LOAD build/bitmap.o
LOAD build/thread.o
LOAD build/list.o
LOAD build/sync.o
LOAD build/console.o
                [!provide]                        PROVIDE (__executable_start = SEGMENT_START ("text-segment", 0x8048000))
                0x080480f4                        . = (SEGMENT_START ("text-segment", 0x8048000) + SIZEOF_HEADERS)

.interp
 *(.interp)

.note.gnu.build-id
 *(.note.gnu.build-id)

.hash
 *(.hash)

.gnu.hash
 *(.gnu.hash)

.dynsym
 *(.dynsym)

.dynstr
 *(.dynstr)

.gnu.version
 *(.gnu.version)

.gnu.version_d
 *(.gnu.version_d)

.gnu.version_r
 *(.gnu.version_r)

.rel.dyn        0x080480f4        0x0
 *(.rel.init)
 *(.rel.text .rel.text.* .rel.gnu.linkonce.t.*)
 *(.rel.fini)
 *(.rel.rodata .rel.rodata.* .rel.gnu.linkonce.r.*)
 *(.rel.data.rel.ro .rel.data.rel.ro.* .rel.gnu.linkonce.d.rel.ro.*)
 *(.rel.data .rel.data.* .rel.gnu.linkonce.d.*)
 *(.rel.tdata .rel.tdata.* .rel.gnu.linkonce.td.*)
 *(.rel.tbss .rel.tbss.* .rel.gnu.linkonce.tb.*)
 *(.rel.ctors)
 *(.rel.dtors)
 *(.rel.got)
 .rel.got       0x080480f4        0x0 build/main.o
 *(.rel.bss .rel.bss.* .rel.gnu.linkonce.b.*)
 *(.rel.ifunc)

.rel.plt        0x080480f4        0x0
 *(.rel.plt)
                [!provide]                        PROVIDE (__rel_iplt_start = .)
 *(.rel.iplt)
 .rel.iplt      0x080480f4        0x0 build/main.o
                [!provide]                        PROVIDE (__rel_iplt_end = .)

.relr.dyn
 *(.relr.dyn)
                0x08049000                        . = ALIGN (CONSTANT (MAXPAGESIZE))

.init
 *(SORT_NONE(.init))

.plt            0x08049000        0x0
 *(.plt)
 *(.iplt)
 .iplt          0x08049000        0x0 build/main.o

.plt.got
 *(.plt.got)

.plt.sec
 *(.plt.sec)

.text           0xc0001500     0x2738
 *(.text.unlikely .text.*_unlikely .text.unlikely.*)
 *(.text.exit .text.exit.*)
 *(.text.startup .text.startup.*)
 *(.text.hot .text.hot.*)
 *(SORT_BY_NAME(.text.sorted.*))
 *(.text .stub .text.* .gnu.linkonce.t.*)
 .text          0xc0001500       0xcc build/main.o
                0xc0001500                main
                0xc0001588                k_thread_function_a
                0xc00015aa                k_thread_function_b
 .text.__x86.get_pc_thunk.bx
                0xc00015cc        0x4 build/main.o
                0xc00015cc                __x86.get_pc_thunk.bx
 .text          0xc00015d0       0x43 build/init.o
                0xc00015d0                init_all
 .text          0xc0001613      0x507 build/interrupt.o
                0xc000163c                intr_enable
                0xc000166f                intr_disable
                0xc00016a1                intr_get_status
                0xc00016c8                intr_set_status
                0xc0001a8b                idt_init
                0xc0001af3                register_handler
 .text.__x86.get_pc_thunk.ax
                0xc0001b1a        0x4 build/interrupt.o
                0xc0001b1a                __x86.get_pc_thunk.ax
 .text          0xc0001b1e      0x1b4 build/timer.o
                0xc0001c6a                timer_init
 *fill*         0xc0001cd2        0xe 
 .text          0xc0001ce0      0x39d build/kernel.o
                0xc0001ce0                intr_exit
 *fill*         0xc000207d        0x3 
 .text          0xc0002080      0x14e build/print.o
                0xc0002080                put_int
                0xc00020e3                put_str
                0xc0002101                put_char
                0xc00021b0                set_cursor
 *fill*         0xc00021ce        0x2 
 .text          0xc00021d0       0x15 build/switch.o
                0xc00021d0                switch_to
 .text          0xc00021e5       0xe1 build/debug.o
                0xc00021e5                panic_spin
 .text          0xc00022c6      0x480 build/string.o
                0xc00022c6                memset
                0xc000232f                memcpy
                0xc00023a7                memcmp
                0xc000241f                strcpy
                0xc000248a                strlen
                0xc00024e7                strcmp
                0xc0002576                strchr
                0xc00025e1                strrchr
                0xc0002651                strcat
                0xc00026d1                strchrs
 .text          0xc0002746      0x5d5 build/memory.o
                0xc0002ba7                malloc_page
                0xc0002c7d                get_kernel_pages
                0xc0002cc7                mem_init
 .text          0xc0002d1b      0x254 build/bitmap.o
                0xc0002d1b                bitmap_init
                0xc0002d4e                bitmap_scan_test
                0xc0002d97                bitmap_scan
                0xc0002ea7                bitmap_set
 .text          0xc0002f6f      0x5fe build/thread.o
                0xc0003034                running_thread
                0xc0003053                thread_create
                0xc00030d7                init_thread
                0xc000317a                thread_start
                0xc0003276                schedule
                0xc00033b2                thread_block
                0xc000342a                thread_unblock
                0xc0003508                thread_init
 .text.__x86.get_pc_thunk.dx
                0xc000356d        0x4 build/thread.o
                0xc000356d                __x86.get_pc_thunk.dx
 .text          0xc0003571      0x25e build/list.o
                0xc0003571                list_init
                0xc00035a9                list_insert_before
                0xc00035fd                list_push
                0xc0003625                list_append
                0xc000364d                list_remove
                0xc0003696                list_pop
                0xc00036c2                list_find
                0xc0003707                list_empty
                0xc000372a                list_length
                0xc0003769                list_traversal
 .text          0xc00037cf      0x350 build/sync.o
                0xc00037cf                semaphore_init
                0xc0003809                lock_init
                0xc0003843                semaphore_down
                0xc000391e                semaphore_up
                0xc00039e8                lock_acquire
                0xc0003a70                lock_release
 .text          0xc0003b1f      0x119 build/console.o
                0xc0003b1f                console_init
                0xc0003b4a                console_acquire
                0xc0003b75                console_release
                0xc0003ba0                console_put_str
                0xc0003bd0                console_put_char
                0xc0003c08                console_put_int
 *(.gnu.warning)

.fini
 *(SORT_NONE(.fini))
                [!provide]                        PROVIDE (__etext = .)
                [!provide]                        PROVIDE (_etext = .)
                [!provide]                        PROVIDE (etext = .)
                0xc0004000                        . = ALIGN (CONSTANT (MAXPAGESIZE))
                0xc0004000                        . = SEGMENT_START ("rodata-segment", (ALIGN (CONSTANT (MAXPAGESIZE)) + (. & (CONSTANT (MAXPAGESIZE) - 0x1))))

.rodata         0xc0004000      0x94d
 *(.rodata .rodata.* .gnu.linkonce.r.*)
 .rodata        0xc0004000       0x3c build/main.o
 .rodata        0xc000403c        0xb build/init.o
 *fill*         0xc0004047        0x1 
 .rodata        0xc0004048      0x2b8 build/interrupt.o
 .rodata        0xc0004300       0x6f build/timer.o
 .rodata        0xc000436f       0x3c build/debug.o
 *fill*         0xc00043ab        0x1 
 .rodata        0xc00043ac       0xb4 build/string.o
 .rodata        0xc0004460      0x114 build/memory.o
 .rodata        0xc0004574       0x3b build/bitmap.o
 *fill*         0xc00045af        0x1 
 .rodata        0xc00045b0      0x2a3 build/thread.o
 *fill*         0xc0004853        0x1 
 .rodata        0xc0004854       0xf9 build/sync.o

.rodata1
 *(.rodata1)

.eh_frame_hdr
 *(.eh_frame_hdr)
 *(.eh_frame_entry .eh_frame_entry.*)

.eh_frame       0xc0004950      0xb08
 *(.eh_frame)
 .eh_frame      0xc0004950       0x8c build/main.o
 .eh_frame      0xc00049dc       0x24 build/init.o
                                 0x50 (size before relaxing)
 .eh_frame      0xc0004a00      0x1c4 build/interrupt.o
                                0x1f0 (size before relaxing)
 .eh_frame      0xc0004bc4       0x94 build/timer.o
                                 0xd4 (size before relaxing)
 .eh_frame      0xc0004c58       0x1c build/debug.o
                                 0x48 (size before relaxing)
 .eh_frame      0xc0004c74      0x168 build/string.o
                                0x194 (size before relaxing)
 .eh_frame      0xc0004ddc      0x184 build/memory.o
                                0x1c4 (size before relaxing)
 .eh_frame      0xc0004f60       0x8c build/bitmap.o
                                 0xb8 (size before relaxing)
 .eh_frame      0xc0004fec      0x174 build/thread.o
                                0x1b4 (size before relaxing)
 .eh_frame      0xc0005160      0x148 build/list.o
                                0x188 (size before relaxing)
 .eh_frame      0xc00052a8       0xd8 build/sync.o
                                0x118 (size before relaxing)
 .eh_frame      0xc0005380       0xd8 build/console.o
                                0x118 (size before relaxing)
 *(.eh_frame.*)

.sframe
 *(.sframe)
 *(.sframe.*)

.gcc_except_table
 *(.gcc_except_table .gcc_except_table.*)

.gnu_extab
 *(.gnu_extab*)

.exception_ranges
 *(.exception_ranges*)
                0xc0006ff4                        . = DATA_SEGMENT_ALIGN (CONSTANT (MAXPAGESIZE), CONSTANT (COMMONPAGESIZE))

.eh_frame
 *(.eh_frame)
 *(.eh_frame.*)

.sframe
 *(.sframe)
 *(.sframe.*)

.gnu_extab
 *(.gnu_extab)

.gcc_except_table
 *(.gcc_except_table .gcc_except_table.*)

.exception_ranges
 *(.exception_ranges*)

.tdata          0xc0006ff4        0x0
                [!provide]                        PROVIDE (__tdata_start = .)
 *(.tdata .tdata.* .gnu.linkonce.td.*)

.tbss
 *(.tbss .tbss.* .gnu.linkonce.tb.*)
 *(.tcommon)

.preinit_array  0xc0006ff4        0x0
                [!provide]                        PROVIDE (__preinit_array_start = .)
 *(.preinit_array)
                [!provide]                        PROVIDE (__preinit_array_end = .)

.init_array     0xc0006ff4        0x0
                [!provide]                        PROVIDE (__init_array_start = .)
 *(SORT_BY_INIT_PRIORITY(.init_array.*) SORT_BY_INIT_PRIORITY(.ctors.*))
 *(.init_array EXCLUDE_FILE(*crtend?.o *crtend.o *crtbegin?.o *crtbegin.o) .ctors)
                [!provide]                        PROVIDE (__init_array_end = .)

.fini_array     0xc0006ff4        0x0
                [!provide]                        PROVIDE (__fini_array_start = .)
 *(SORT_BY_INIT_PRIORITY(.fini_array.*) SORT_BY_INIT_PRIORITY(.dtors.*))
 *(.fini_array EXCLUDE_FILE(*crtend?.o *crtend.o *crtbegin?.o *crtbegin.o) .dtors)
                [!provide]                        PROVIDE (__fini_array_end = .)

.ctors
 *crtbegin.o(.ctors)
 *crtbegin?.o(.ctors)
 *(EXCLUDE_FILE(*crtend?.o *crtend.o) .ctors)
 *(SORT_BY_NAME(.ctors.*))
 *(.ctors)

.dtors
 *crtbegin.o(.dtors)
 *crtbegin?.o(.dtors)
 *(EXCLUDE_FILE(*crtend?.o *crtend.o) .dtors)
 *(SORT_BY_NAME(.dtors.*))
 *(.dtors)

.jcr
 *(.jcr)

.data.rel.ro
 *(.data.rel.ro.local* .gnu.linkonce.d.rel.ro.local.*)
 *(.data.rel.ro .data.rel.ro.* .gnu.linkonce.d.rel.ro.*)

.dynamic
 *(.dynamic)

.got            0xc0006ff4        0x0
 *(.got)
 .got           0xc0006ff4        0x0 build/main.o
 *(.igot)
                0xc0006ff4                        . = DATA_SEGMENT_RELRO_END (., (SIZEOF (.got.plt) >= 0xc)?0xc:0x0)

.got.plt        0xc0006ff4        0xc
 *(.got.plt)
 .got.plt       0xc0006ff4        0xc build/main.o
                0xc0006ff4                _GLOBAL_OFFSET_TABLE_
 *(.igot.plt)
 .igot.plt      0xc0007000        0x0 build/main.o

.data           0xc0007000       0xa0
 *(.data .data.* .gnu.linkonce.d.*)
 .data          0xc0007000        0x0 build/main.o
 .data          0xc0007000        0x0 build/init.o
 .data          0xc0007000        0x0 build/interrupt.o
 .data          0xc0007000        0x0 build/timer.o
 .data          0xc0007000       0x96 build/kernel.o
                0xc0007012                intr_entry_table
 *fill*         0xc0007096        0x2 
 .data          0xc0007098        0x8 build/print.o
 .data          0xc00070a0        0x0 build/debug.o
 .data          0xc00070a0        0x0 build/string.o
 .data          0xc00070a0        0x0 build/memory.o
 .data          0xc00070a0        0x0 build/bitmap.o
 .data          0xc00070a0        0x0 build/thread.o
 .data          0xc00070a0        0x0 build/list.o
 .data          0xc00070a0        0x0 build/sync.o
 .data          0xc00070a0        0x0 build/console.o

.data1
 *(.data1)
                0xc00070a0                        _edata = .
                [!provide]                        PROVIDE (edata = .)
                0xc00070a0                        . = ALIGN (ALIGNOF (NEXT_SECTION))
                0xc00070a0                        __bss_start = .

.bss            0xc00070a0      0x2bc
 *(.dynbss)
 *(.bss .bss.* .gnu.linkonce.b.*)
 .bss           0xc00070a0        0x0 build/main.o
 .bss           0xc00070a0        0x0 build/init.o
 .bss           0xc00070a0      0x248 build/interrupt.o
                0xc00070a0                intr_name
                0xc0007140                idt_table
 .bss           0xc00072e8        0x4 build/timer.o
                0xc00072e8                ticks
 .bss           0xc00072ec        0x0 build/debug.o
 .bss           0xc00072ec        0x0 build/string.o
 .bss           0xc00072ec       0x2c build/memory.o
                0xc00072ec                kernel_pool
                0xc00072fc                user_pool
                0xc000730c                kernel_addr
 .bss           0xc0007318        0x0 build/bitmap.o
 .bss           0xc0007318       0x28 build/thread.o
                0xc0007318                main_thread
                0xc000731c                thread_ready_list
                0xc000732c                thread_all_list
 .bss           0xc0007340        0x0 build/list.o
 .bss           0xc0007340        0x0 build/sync.o
 .bss           0xc0007340       0x1c build/console.o
 *(COMMON)
                0xc000735c                        . = ALIGN ((. != 0x0)?0x4:0x1)
                0xc000735c                        . = ALIGN (0x4)
                0xc000735c                        . = SEGMENT_START ("ldata-segment", .)
                0xc000735c                        . = ALIGN (0x4)
                0xc000735c                        _end = .
                [!provide]                        PROVIDE (end = .)
                0xc000735c                        . = DATA_SEGMENT_END (.)

.stab
 *(.stab)

.stabstr
 *(.stabstr)

.stab.excl
 *(.stab.excl)

.stab.exclstr
 *(.stab.exclstr)

.stab.index
 *(.stab.index)

.stab.indexstr
 *(.stab.indexstr)

.comment        0x00000000       0x26
 *(.comment)
 .comment       0x00000000       0x26 build/main.o
                                 0x27 (size before relaxing)
 .comment       0x00000026       0x27 build/init.o
 .comment       0x00000026       0x27 build/interrupt.o
 .comment       0x00000026       0x27 build/timer.o
 .comment       0x00000026       0x27 build/debug.o
 .comment       0x00000026       0x27 build/string.o
 .comment       0x00000026       0x27 build/memory.o
 .comment       0x00000026       0x27 build/bitmap.o
 .comment       0x00000026       0x27 build/thread.o
 .comment       0x00000026       0x27 build/list.o
 .comment       0x00000026       0x27 build/sync.o
 .comment       0x00000026       0x27 build/console.o

.gnu.build.attributes
 *(.gnu.build.attributes .gnu.build.attributes.*)

.debug
 *(.debug)

.line
 *(.line)

.debug_srcinfo
 *(.debug_srcinfo)

.debug_sfnames
 *(.debug_sfnames)

.debug_aranges
 *(.debug_aranges)

.debug_pubnames
 *(.debug_pubnames)

.debug_info
 *(.debug_info .gnu.linkonce.wi.*)

.debug_abbrev
 *(.debug_abbrev)

.debug_line
 *(.debug_line .debug_line.* .debug_line_end)

.debug_frame
 *(.debug_frame)

.debug_str
 *(.debug_str)

.debug_loc
 *(.debug_loc)

.debug_macinfo
 *(.debug_macinfo)

.debug_weaknames
 *(.debug_weaknames)

.debug_funcnames
 *(.debug_funcnames)

.debug_typenames
 *(.debug_typenames)

.debug_varnames
 *(.debug_varnames)

.debug_pubtypes
 *(.debug_pubtypes)

.debug_ranges
 *(.debug_ranges)

.debug_addr
 *(.debug_addr)

.debug_line_str
 *(.debug_line_str)

.debug_loclists
 *(.debug_loclists)

.debug_macro
 *(.debug_macro)

.debug_names
 *(.debug_names)

.debug_rnglists
 *(.debug_rnglists)

.debug_str_offsets
 *(.debug_str_offsets)

.debug_sup
 *(.debug_sup)

.gnu.attributes
 *(.gnu.attributes)

/DISCARD/
 *(.note.GNU-stack)
 *(.gnu_debuglink)
 *(.gnu.lto_*)
OUTPUT(build/kernel.bin elf32-i386)
